; Function Attrs: nounwind uwtable
define internal noundef i32 @_list_part_node_lists(ptr noundef readonly captures(none) %0, ptr readnone captures(none) %1) #0 {
  %3 = alloca ptr, align 8
  call void @llvm.lifetime.start.p0(i64 8, ptr nonnull %3) #12
  %4 = getelementptr inbounds nuw i8, ptr %0, i64 8
  %5 = load ptr, ptr %4, align 8
  %6 = tail call ptr @bitmap2node_name(ptr noundef %5) #12
  store ptr %6, ptr %3, align 8
  %7 = load i64, ptr getelementptr inbounds nuw (i8, ptr @slurm_conf, i64 320), align 8
  %8 = and i64 %7, 4398046511104
  %.not = icmp eq i64 %8, 0
  br i1 %.not, label %14, label %9

9:                                                ; preds = %2
  %10 = tail call i32 @get_log_level() #12
  %11 = icmp sgt i32 %10, 3
  br i1 %11, label %12, label %14

12:                                               ; preds = %9
  %13 = load i32, ptr %0, align 8
  tail call void (i32, ptr, ...) @log_var(i32 noundef 4, ptr noundef nonnull @.str.24, i32 noundef %13, ptr noundef %6) #12
  br label %14

14:                                               ; preds = %9, %12, %2
  call void @slurm_xfree(ptr noundef nonnull %3) #12
  call void @llvm.lifetime.end.p0(i64 8, ptr nonnull %3) #12
  ret i32 0
}